target datalayout = "e-m:e-p270:32:32-p271:32:32-p272:64:64-i64:64-i128:128-f80:128-n8:16:32:64-S128"
target triple = "x86_64-pc-linux-gnu"

%struct.stats_state = type { i64, i64, i64, i64, float, i32, i32, i32, i32, i8, i8, i8, i8 }
%struct._stritem = type { ptr, ptr, ptr, i32, i32, i32, i16, i16, i8, i8, [0 x %union.anon] }
%union.anon = type { i64 }

@stats_state = external global %struct.stats_state, align 8
@stats_sizes_hist = internal global ptr null, align 8
@stats_sizes_buckets = internal global i32 0, align 4

; Function Attrs: nounwind uwtable
define dso_local void @item_free(ptr noundef %0) #0 {
  %2 = alloca ptr, align 8
  %3 = alloca i32, align 4
  store ptr %0, ptr %2, align 8, !tbaa !16
  call void @llvm.lifetime.start.p0(i64 4, ptr %3) #9
  %4 = load ptr, ptr %2, align 8, !tbaa !16
  %5 = getelementptr inbounds nuw %struct._stritem, ptr %4, i32 0, i32 8
  %6 = load i8, ptr %5, align 8, !tbaa !30
  %7 = zext i8 %6 to i32
  %8 = and i32 %7, -193
  store i32 %8, ptr %3, align 4, !tbaa !4
  br label %9

9:                                                ; preds = %10, %1
  br i1 false, label %10, label %11

10:                                               ; preds = %9
  br label %9

11:                                               ; preds = %9
  %12 = load ptr, ptr %2, align 8, !tbaa !16
  %13 = load i32, ptr %3, align 4, !tbaa !4
  call void @slabs_free(ptr noundef %12, i32 noundef %13)
  call void @llvm.lifetime.end.p0(i64 4, ptr %3) #9
  ret void
}

; Function Attrs: nounwind uwtable
define dso_local void @do_item_remove(ptr noundef %0) #0 {
  %2 = alloca ptr, align 8
  store ptr %0, ptr %2, align 8, !tbaa !16
  %3 = load ptr, ptr %2, align 8, !tbaa !16
  %4 = getelementptr inbounds nuw %struct._stritem, ptr %3, i32 0, i32 6
  %5 = load i16, ptr %4, align 4, !tbaa !34
  %6 = add i16 %5, -1
  store i16 %6, ptr %4, align 4, !tbaa !34
  %7 = zext i16 %6 to i32
  %8 = icmp eq i32 %7, 0
  br i1 %8, label %9, label %11

9:                                                ; preds = %1
  %10 = load ptr, ptr %2, align 8, !tbaa !16
  call void @item_free(ptr noundef %10)
  br label %11

11:                                               ; preds = %9, %1
  ret void
}

; Function Attrs: nounwind uwtable
define dso_local void @item_stats_sizes_remove(ptr noundef %0) #0 {
  %2 = alloca ptr, align 8
  %3 = alloca i32, align 4
  %4 = alloca i32, align 4
  store ptr %0, ptr %2, align 8, !tbaa !16
  %5 = load ptr, ptr @stats_sizes_hist, align 8, !tbaa !79
  %6 = icmp eq ptr %5, null
  br i1 %6, label %7, label %8

7:                                                ; preds = %1
  br label %57

8:                                                ; preds = %1
  call void @llvm.lifetime.start.p0(i64 4, ptr %3) #9
  %9 = load ptr, ptr %2, align 8, !tbaa !16
  %10 = getelementptr inbounds nuw %struct._stritem, ptr %9, i32 0, i32 9
  %11 = load i8, ptr %10, align 1, !tbaa !30
  %12 = zext i8 %11 to i64
  %13 = add i64 48, %12
  %14 = add i64 %13, 1
  %15 = load ptr, ptr %2, align 8, !tbaa !16
  %16 = getelementptr inbounds nuw %struct._stritem, ptr %15, i32 0, i32 5
  %17 = load i32, ptr %16, align 8, !tbaa !4
  %18 = sext i32 %17 to i64
  %19 = add i64 %14, %18
  %20 = load ptr, ptr %2, align 8, !tbaa !16
  %21 = getelementptr inbounds nuw %struct._stritem, ptr %20, i32 0, i32 7
  %22 = load i16, ptr %21, align 2, !tbaa !34
  %23 = zext i16 %22 to i32
  %24 = and i32 %23, 256
  %25 = icmp ne i32 %24, 0
  %26 = select i1 %25, i64 4, i64 0
  %27 = add i64 %19, %26
  %28 = load ptr, ptr %2, align 8, !tbaa !16
  %29 = getelementptr inbounds nuw %struct._stritem, ptr %28, i32 0, i32 7
  %30 = load i16, ptr %29, align 2, !tbaa !34
  %31 = zext i16 %30 to i32
  %32 = and i32 %31, 2
  %33 = icmp ne i32 %32, 0
  %34 = select i1 %33, i64 8, i64 0
  %35 = add i64 %27, %34
  %36 = trunc i64 %35 to i32
  store i32 %36, ptr %3, align 4, !tbaa !4
  call void @llvm.lifetime.start.p0(i64 4, ptr %4) #9
  %37 = load i32, ptr %3, align 4, !tbaa !4
  %38 = sdiv i32 %37, 32
  store i32 %38, ptr %4, align 4, !tbaa !4
  %39 = load i32, ptr %3, align 4, !tbaa !4
  %40 = srem i32 %39, 32
  %41 = icmp ne i32 %40, 0
  br i1 %41, label %42, label %45

42:                                               ; preds = %8
  %43 = load i32, ptr %4, align 4, !tbaa !4
  %44 = add nsw i32 %43, 1
  store i32 %44, ptr %4, align 4, !tbaa !4
  br label %45

45:                                               ; preds = %42, %8
  %46 = load i32, ptr %4, align 4, !tbaa !4
  %47 = load i32, ptr @stats_sizes_buckets, align 4, !tbaa !4
  %48 = icmp slt i32 %46, %47
  br i1 %48, label %49, label %56

49:                                               ; preds = %45
  %50 = load ptr, ptr @stats_sizes_hist, align 8, !tbaa !79
  %51 = load i32, ptr %4, align 4, !tbaa !4
  %52 = sext i32 %51 to i64
  %53 = getelementptr inbounds i32, ptr %50, i64 %52
  %54 = load i32, ptr %53, align 4, !tbaa !4
  %55 = add i32 %54, -1
  store i32 %55, ptr %53, align 4, !tbaa !4
  br label %56

56:                                               ; preds = %49, %45
  call void @llvm.lifetime.end.p0(i64 4, ptr %4) #9
  call void @llvm.lifetime.end.p0(i64 4, ptr %3) #9
  br label %57

57:                                               ; preds = %56, %7
  ret void
}

; Function Attrs: nounwind uwtable
define dso_local void @do_item_unlink(ptr noundef %0, i32 noundef %1) #0 {
  %3 = alloca ptr, align 8
  %4 = alloca i32, align 4
  store ptr %0, ptr %3, align 8, !tbaa !16
  store i32 %1, ptr %4, align 4, !tbaa !4
  %5 = load ptr, ptr %3, align 8, !tbaa !16
  %6 = getelementptr inbounds nuw %struct._stritem, ptr %5, i32 0, i32 7
  %7 = load i16, ptr %6, align 2, !tbaa !34
  %8 = zext i16 %7 to i32
  %9 = and i32 %8, 1
  %10 = icmp ne i32 %9, 0
  br i1 %10, label %11, label %67

11:                                               ; preds = %2
  %12 = load ptr, ptr %3, align 8, !tbaa !16
  %13 = getelementptr inbounds nuw %struct._stritem, ptr %12, i32 0, i32 7
  %14 = load i16, ptr %13, align 2, !tbaa !34
  %15 = zext i16 %14 to i32
  %16 = and i32 %15, -2
  %17 = trunc i32 %16 to i16
  store i16 %17, ptr %13, align 2, !tbaa !34
  call void @STATS_LOCK()
  %18 = load ptr, ptr %3, align 8, !tbaa !16
  %19 = getelementptr inbounds nuw %struct._stritem, ptr %18, i32 0, i32 9
  %20 = load i8, ptr %19, align 1, !tbaa !30
  %21 = zext i8 %20 to i64
  %22 = add i64 48, %21
  %23 = add i64 %22, 1
  %24 = load ptr, ptr %3, align 8, !tbaa !16
  %25 = getelementptr inbounds nuw %struct._stritem, ptr %24, i32 0, i32 5
  %26 = load i32, ptr %25, align 8, !tbaa !4
  %27 = sext i32 %26 to i64
  %28 = add i64 %23, %27
  %29 = load ptr, ptr %3, align 8, !tbaa !16
  %30 = getelementptr inbounds nuw %struct._stritem, ptr %29, i32 0, i32 7
  %31 = load i16, ptr %30, align 2, !tbaa !34
  %32 = zext i16 %31 to i32
  %33 = and i32 %32, 256
  %34 = icmp ne i32 %33, 0
  %35 = select i1 %34, i64 4, i64 0
  %36 = add i64 %28, %35
  %37 = load ptr, ptr %3, align 8, !tbaa !16
  %38 = getelementptr inbounds nuw %struct._stritem, ptr %37, i32 0, i32 7
  %39 = load i16, ptr %38, align 2, !tbaa !34
  %40 = zext i16 %39 to i32
  %41 = and i32 %40, 2
  %42 = icmp ne i32 %41, 0
  %43 = select i1 %42, i64 8, i64 0
  %44 = add i64 %36, %43
  %45 = load i64, ptr getelementptr inbounds nuw (%struct.stats_state, ptr @stats_state, i32 0, i32 1), align 8, !tbaa !72
  %46 = sub i64 %45, %44
  store i64 %46, ptr getelementptr inbounds nuw (%struct.stats_state, ptr @stats_state, i32 0, i32 1), align 8, !tbaa !72
  %47 = load i64, ptr @stats_state, align 8, !tbaa !75
  %48 = sub i64 %47, 1
  store i64 %48, ptr @stats_state, align 8, !tbaa !75
  call void @STATS_UNLOCK()
  %49 = load ptr, ptr %3, align 8, !tbaa !16
  call void @item_stats_sizes_remove(ptr noundef %49)
  %50 = load ptr, ptr %3, align 8, !tbaa !16
  %51 = getelementptr inbounds nuw %struct._stritem, ptr %50, i32 0, i32 10
  %52 = load ptr, ptr %3, align 8, !tbaa !16
  %53 = getelementptr inbounds nuw %struct._stritem, ptr %52, i32 0, i32 7
  %54 = load i16, ptr %53, align 2, !tbaa !34
  %55 = zext i16 %54 to i32
  %56 = and i32 %55, 2
  %57 = icmp ne i32 %56, 0
  %58 = select i1 %57, i64 8, i64 0
  %59 = getelementptr inbounds nuw i8, ptr %51, i64 %58
  %60 = load ptr, ptr %3, align 8, !tbaa !16
  %61 = getelementptr inbounds nuw %struct._stritem, ptr %60, i32 0, i32 9
  %62 = load i8, ptr %61, align 1, !tbaa !30
  %63 = zext i8 %62 to i64
  %64 = load i32, ptr %4, align 4, !tbaa !4
  call void @assoc_delete(ptr noundef %59, i64 noundef %63, i32 noundef %64)
  %65 = load ptr, ptr %3, align 8, !tbaa !16
  call void @item_unlink_q(ptr noundef %65)
  %66 = load ptr, ptr %3, align 8, !tbaa !16
  call void @do_item_remove(ptr noundef %66)
  br label %67

67:                                               ; preds = %11, %2
  ret void
}