; Function Attrs: nounwind uwtable
define dso_local void @do_item_unlink(ptr noundef %0, i32 noundef %1) local_unnamed_addr #0 {
  %3 = getelementptr inbounds nuw i8, ptr %0, i64 38
  %4 = load i16, ptr %3, align 2, !tbaa !31
  %5 = and i16 %4, 1
  %.not = icmp eq i16 %5, 0
  br i1 %.not, label %do_item_remove.exit, label %6

6:                                                ; preds = %2
  %7 = and i16 %4, -2
  store i16 %7, ptr %3, align 2, !tbaa !31
  tail call void @STATS_LOCK() #19
  %8 = getelementptr inbounds nuw i8, ptr %0, i64 41
  %9 = load i8, ptr %8, align 1, !tbaa !30
  %10 = zext i8 %9 to i64
  %11 = getelementptr inbounds nuw i8, ptr %0, i64 32
  %12 = load i32, ptr %11, align 8, !tbaa !22
  %13 = sext i32 %12 to i64
  %14 = load i16, ptr %3, align 2, !tbaa !31
  %15 = zext i16 %14 to i32
  %16 = lshr i32 %15, 6
  %17 = and i32 %16, 4
  %18 = zext nneg i32 %17 to i64
  %19 = shl nuw nsw i32 %15, 2
  %20 = and i32 %19, 8
  %21 = zext nneg i32 %20 to i64
  %22 = load i64, ptr getelementptr inbounds nuw (i8, ptr @stats_state, i64 8), align 8, !tbaa !66
  %23 = add nsw i64 %10, %13
  %24 = add i64 %22, -49
  %25 = add nsw i64 %23, %18
  %26 = add nsw i64 %25, %21
  %27 = sub i64 %24, %26
  store i64 %27, ptr getelementptr inbounds nuw (i8, ptr @stats_state, i64 8), align 8, !tbaa !66
  %28 = load i64, ptr @stats_state, align 8, !tbaa !69
  %29 = add i64 %28, -1
  store i64 %29, ptr @stats_state, align 8, !tbaa !69
  tail call void @STATS_UNLOCK() #19
  %30 = load ptr, ptr @stats_sizes_hist, align 8, !tbaa !73
  %31 = icmp eq ptr %30, null
  %.pre = load i16, ptr %3, align 2, !tbaa !31
  %.pre23 = load i8, ptr %8, align 1, !tbaa !30
  br i1 %31, label %item_stats_sizes_remove.exit, label %32

32:                                               ; preds = %6
  %33 = zext i8 %.pre23 to i32
  %34 = add nuw nsw i32 %33, 49
  %35 = load i32, ptr %11, align 8, !tbaa !22
  %36 = add i32 %34, %35
  %37 = zext i16 %.pre to i32
  %38 = lshr i32 %37, 6
  %39 = and i32 %38, 4
  %40 = add i32 %36, %39
  %41 = shl nuw nsw i32 %37, 2
  %42 = and i32 %41, 8
  %43 = add i32 %40, %42
  %44 = sdiv i32 %43, 32
  %45 = and i32 %43, 31
  %.not.i = icmp ne i32 %45, 0
  %46 = zext i1 %.not.i to i32
  %spec.select.i = add nsw i32 %44, %46
  %47 = load i32, ptr @stats_sizes_buckets, align 4, !tbaa !22
  %48 = icmp slt i32 %spec.select.i, %47
  br i1 %48, label %49, label %item_stats_sizes_remove.exit

49:                                               ; preds = %32
  %50 = sext i32 %spec.select.i to i64
  %51 = getelementptr inbounds i32, ptr %30, i64 %50
  %52 = load i32, ptr %51, align 4, !tbaa !22
  %53 = add i32 %52, -1
  store i32 %53, ptr %51, align 4, !tbaa !22
  %.pre22 = load i8, ptr %8, align 1, !tbaa !30
  br label %item_stats_sizes_remove.exit

item_stats_sizes_remove.exit:                     ; preds = %6, %32, %49
  %54 = phi i8 [ %.pre23, %6 ], [ %.pre23, %32 ], [ %.pre22, %49 ]
  %55 = getelementptr inbounds nuw i8, ptr %0, i64 48
  %56 = shl i16 %.pre, 2
  %57 = and i16 %56, 8
  %58 = zext nneg i16 %57 to i64
  %59 = getelementptr inbounds nuw i8, ptr %55, i64 %58
  %60 = zext i8 %54 to i64
  tail call void @assoc_delete(ptr noundef nonnull %59, i64 noundef %60, i32 noundef %1) #19
  tail call fastcc void @item_unlink_q(ptr noundef nonnull %0)
  %61 = getelementptr inbounds nuw i8, ptr %0, i64 36
  %62 = load i16, ptr %61, align 4, !tbaa !31
  %63 = add i16 %62, -1
  store i16 %63, ptr %61, align 4, !tbaa !31
  %64 = icmp eq i16 %63, 0
  br i1 %64, label %65, label %do_item_remove.exit

65:                                               ; preds = %item_stats_sizes_remove.exit
  %66 = getelementptr inbounds nuw i8, ptr %0, i64 40
  %67 = load i8, ptr %66, align 8, !tbaa !30
  %68 = and i8 %67, 63
  %69 = zext nneg i8 %68 to i32
  tail call void @slabs_free(ptr noundef nonnull %0, i32 noundef %69) #19
  br label %do_item_remove.exit

do_item_remove.exit:                              ; preds = %65, %item_stats_sizes_remove.exit, %2
  ret void
}